; Function Attrs: nounwind uwtable
define internal range(i32 -1, 1) i32 @H5T__ref_obj_disk_isnull(ptr noundef %0, ptr noundef %1, ptr noundef writeonly captures(none) %2) #0 {
  %4 = alloca ptr, align 8
  %5 = alloca i64, align 8
  call void @llvm.lifetime.start.p0(i64 8, ptr nonnull %4) #11
  store ptr %1, ptr %4, align 8, !tbaa !42
  call void @llvm.lifetime.start.p0(i64 8, ptr nonnull %5) #11
  %6 = load i8, ptr @H5T_init_g, align 1, !tbaa !3, !range !7, !noundef !8
  %7 = trunc nuw i8 %6 to i1
  %8 = load i8, ptr @H5_libterm_g, align 1, !range !7
  %9 = trunc nuw i8 %8 to i1
  %10 = xor i1 %9, true
  %11 = select i1 %7, i1 true, i1 %10
  br i1 %11, label %12, label %23, !prof !9

12:                                               ; preds = %3
  %13 = tail call ptr @H5VL_object_data(ptr noundef %0) #11
  %14 = icmp eq ptr %13, null
  br i1 %14, label %15, label %19

15:                                               ; preds = %12
  %16 = load i64, ptr @H5E_ARGS_g, align 8, !tbaa !26
  %17 = load i64, ptr @H5E_BADTYPE_g, align 8, !tbaa !26
  %18 = tail call i32 (ptr, ptr, i32, i64, i64, ptr, ...) @H5E_printf_stack(ptr noundef nonnull @.str, ptr noundef nonnull @__func__.H5T__ref_obj_disk_isnull, i32 noundef 1063, i64 noundef %16, i64 noundef %17, ptr noundef nonnull @.str.4) #11
  br label %23

19:                                               ; preds = %12
  call void @H5F_addr_decode(ptr noundef nonnull %13, ptr noundef nonnull %4, ptr noundef nonnull %5) #11
  %20 = load i64, ptr %5, align 8, !tbaa !26
  %21 = icmp eq i64 %20, 0
  %22 = zext i1 %21 to i8
  store i8 %22, ptr %2, align 1, !tbaa !3
  br label %23

23:                                               ; preds = %15, %19, %3
  %.0 = phi i32 [ -1, %15 ], [ 0, %19 ], [ 0, %3 ]
  call void @llvm.lifetime.end.p0(i64 8, ptr nonnull %5) #11
  call void @llvm.lifetime.end.p0(i64 8, ptr nonnull %4) #11
  ret i32 %.0
}